target datalayout = "e-m:e-p270:32:32-p271:32:32-p272:64:64-i64:64-i128:128-f80:128-n8:16:32:64-S128"
target triple = "x86_64-unknown-linux-gnu"

%struct.batch_alloc_packet_s = type { ptr, i64, i64, i32 }

; Function Attrs: nounwind uwtable
define internal i32 @experimental_batch_alloc_ctl(ptr noundef %tsd, ptr noundef %mib, i64 noundef %miblen, ptr noundef %oldp, ptr noundef %oldlenp, ptr noundef %newp, i64 noundef %newlen) #0 {
entry:
  %tsd.addr = alloca ptr, align 8
  %mib.addr = alloca ptr, align 8
  %miblen.addr = alloca i64, align 8
  %oldp.addr = alloca ptr, align 8
  %oldlenp.addr = alloca ptr, align 8
  %newp.addr = alloca ptr, align 8
  %newlen.addr = alloca i64, align 8
  %ret = alloca i32, align 4
  %batch_alloc_packet = alloca %struct.batch_alloc_packet_s, align 8
  %filled = alloca i64, align 8
  %copylen = alloca i64, align 8
  store ptr %tsd, ptr %tsd.addr, align 8
  store ptr %mib, ptr %mib.addr, align 8
  store i64 %miblen, ptr %miblen.addr, align 8
  store ptr %oldp, ptr %oldp.addr, align 8
  store ptr %oldlenp, ptr %oldlenp.addr, align 8
  store ptr %newp, ptr %newp.addr, align 8
  store i64 %newlen, ptr %newlen.addr, align 8
  br label %do.body

do.body:                                          ; preds = %entry
  %0 = load ptr, ptr %oldp.addr, align 8
  %cmp = icmp eq ptr %0, null
  br i1 %cmp, label %if.then, label %lor.lhs.false

lor.lhs.false:                                    ; preds = %do.body
  %1 = load ptr, ptr %oldlenp.addr, align 8
  %cmp1 = icmp eq ptr %1, null
  br i1 %cmp1, label %if.then, label %lor.lhs.false2

lor.lhs.false2:                                   ; preds = %lor.lhs.false
  %2 = load ptr, ptr %oldlenp.addr, align 8
  %3 = load i64, ptr %2, align 8
  %cmp3 = icmp ne i64 %3, 8
  br i1 %cmp3, label %if.then, label %if.end

if.then:                                          ; preds = %lor.lhs.false2, %lor.lhs.false, %do.body
  %4 = load ptr, ptr %oldlenp.addr, align 8
  store i64 0, ptr %4, align 8
  store i32 22, ptr %ret, align 4
  br label %label_return

if.end:                                           ; preds = %lor.lhs.false2
  br label %do.end

do.end:                                           ; preds = %if.end
  br label %do.body4

do.body4:                                         ; preds = %do.end
  %5 = load ptr, ptr %newp.addr, align 8
  %cmp5 = icmp eq ptr %5, null
  br i1 %cmp5, label %if.then8, label %lor.lhs.false6

lor.lhs.false6:                                   ; preds = %do.body4
  %6 = load i64, ptr %newlen.addr, align 8
  %cmp7 = icmp ne i64 %6, 32
  br i1 %cmp7, label %if.then8, label %if.end9

if.then8:                                         ; preds = %lor.lhs.false6, %do.body4
  store i32 22, ptr %ret, align 4
  br label %label_return

if.end9:                                          ; preds = %lor.lhs.false6
  %7 = load ptr, ptr %newp.addr, align 8
  call void @llvm.memcpy.p0.p0.i64(ptr align 8 %batch_alloc_packet, ptr align 8 %7, i64 32, i1 false)
  br label %do.end10

do.end10:                                         ; preds = %if.end9
  %ptrs = getelementptr inbounds %struct.batch_alloc_packet_s, ptr %batch_alloc_packet, i32 0, i32 0
  %8 = load ptr, ptr %ptrs, align 8
  %num = getelementptr inbounds %struct.batch_alloc_packet_s, ptr %batch_alloc_packet, i32 0, i32 1
  %9 = load i64, ptr %num, align 8
  %size = getelementptr inbounds %struct.batch_alloc_packet_s, ptr %batch_alloc_packet, i32 0, i32 2
  %10 = load i64, ptr %size, align 8
  %flags = getelementptr inbounds %struct.batch_alloc_packet_s, ptr %batch_alloc_packet, i32 0, i32 3
  %11 = load i32, ptr %flags, align 8
  %call = call i64 @batch_alloc(ptr noundef %8, i64 noundef %9, i64 noundef %10, i32 noundef %11)
  store i64 %call, ptr %filled, align 8
  br label %do.body11

do.body11:                                        ; preds = %do.end10
  %12 = load ptr, ptr %oldp.addr, align 8
  %cmp12 = icmp ne ptr %12, null
  br i1 %cmp12, label %land.lhs.true, label %if.end19

land.lhs.true:                                    ; preds = %do.body11
  %13 = load ptr, ptr %oldlenp.addr, align 8
  %cmp13 = icmp ne ptr %13, null
  br i1 %cmp13, label %if.then14, label %if.end19

if.then14:                                        ; preds = %land.lhs.true
  %14 = load ptr, ptr %oldlenp.addr, align 8
  %15 = load i64, ptr %14, align 8
  %cmp15 = icmp ne i64 %15, 8
  br i1 %cmp15, label %if.then16, label %if.end18

if.then16:                                        ; preds = %if.then14
  %16 = load ptr, ptr %oldlenp.addr, align 8
  %17 = load i64, ptr %16, align 8
  %cmp17 = icmp ule i64 8, %17
  br i1 %cmp17, label %cond.true, label %cond.false

cond.true:                                        ; preds = %if.then16
  br label %cond.end

cond.false:                                       ; preds = %if.then16
  %18 = load ptr, ptr %oldlenp.addr, align 8
  %19 = load i64, ptr %18, align 8
  br label %cond.end

cond.end:                                         ; preds = %cond.false, %cond.true
  %cond = phi i64 [ 8, %cond.true ], [ %19, %cond.false ]
  store i64 %cond, ptr %copylen, align 8
  %20 = load ptr, ptr %oldp.addr, align 8
  %21 = load i64, ptr %copylen, align 8
  call void @llvm.memcpy.p0.p0.i64(ptr align 1 %20, ptr align 1 %filled, i64 %21, i1 false)
  %22 = load i64, ptr %copylen, align 8
  %23 = load ptr, ptr %oldlenp.addr, align 8
  store i64 %22, ptr %23, align 8
  store i32 22, ptr %ret, align 4
  br label %label_return

if.end18:                                         ; preds = %if.then14
  %24 = load i64, ptr %filled, align 8
  %25 = load ptr, ptr %oldp.addr, align 8
  store i64 %24, ptr %25, align 8
  br label %if.end19

if.end19:                                         ; preds = %if.end18, %land.lhs.true, %do.body11
  br label %do.end20

do.end20:                                         ; preds = %if.end19
  store i32 0, ptr %ret, align 4
  br label %label_return

label_return:                                     ; preds = %do.end20, %cond.end, %if.then8, %if.then
  %26 = load i32, ptr %ret, align 4
  ret i32 %26
}