; Function Attrs: nounwind uwtable
define internal noundef i32 @experimental_batch_alloc_ctl(ptr nocapture readnone %tsd, ptr nocapture readnone %mib, i64 %miblen, ptr noundef writeonly %oldp, ptr noundef %oldlenp, ptr noundef readonly %newp, i64 noundef %newlen) #0 {
entry:
  %filled = alloca i64, align 8
  %cmp = icmp eq ptr %oldp, null
  %cmp1 = icmp eq ptr %oldlenp, null
  %or.cond = or i1 %cmp, %cmp1
  br i1 %or.cond, label %if.then, label %lor.lhs.false2

lor.lhs.false2:                                   ; preds = %entry
  %0 = load i64, ptr %oldlenp, align 8
  %cmp3.not = icmp eq i64 %0, 8
  br i1 %cmp3.not, label %do.body4, label %if.then

if.then:                                          ; preds = %lor.lhs.false2, %entry
  store i64 0, ptr %oldlenp, align 8
  br label %label_return

do.body4:                                         ; preds = %lor.lhs.false2
  %cmp5 = icmp eq ptr %newp, null
  %cmp7 = icmp ne i64 %newlen, 32
  %or.cond1 = or i1 %cmp5, %cmp7
  br i1 %or.cond1, label %label_return, label %if.end9

if.end9:                                          ; preds = %do.body4
  %batch_alloc_packet.sroa.0.0.copyload = load ptr, ptr %newp, align 8
  %batch_alloc_packet.sroa.2.0..sroa_idx = getelementptr inbounds i8, ptr %newp, i64 8
  %batch_alloc_packet.sroa.2.0.copyload = load i64, ptr %batch_alloc_packet.sroa.2.0..sroa_idx, align 8
  %batch_alloc_packet.sroa.3.0..sroa_idx = getelementptr inbounds i8, ptr %newp, i64 16
  %batch_alloc_packet.sroa.3.0.copyload = load i64, ptr %batch_alloc_packet.sroa.3.0..sroa_idx, align 8
  %batch_alloc_packet.sroa.4.0..sroa_idx = getelementptr inbounds i8, ptr %newp, i64 24
  %batch_alloc_packet.sroa.4.0.copyload = load i32, ptr %batch_alloc_packet.sroa.4.0..sroa_idx, align 8
  %call = tail call i64 @batch_alloc(ptr noundef %batch_alloc_packet.sroa.0.0.copyload, i64 noundef %batch_alloc_packet.sroa.2.0.copyload, i64 noundef %batch_alloc_packet.sroa.3.0.copyload, i32 noundef %batch_alloc_packet.sroa.4.0.copyload) #14
  store i64 %call, ptr %filled, align 8
  %1 = load i64, ptr %oldlenp, align 8
  %cmp15.not = icmp eq i64 %1, 8
  br i1 %cmp15.not, label %if.end18, label %if.then16

if.then16:                                        ; preds = %if.end9
  %spec.select = tail call i64 @llvm.umin.i64(i64 %1, i64 8)
  call void @llvm.memcpy.p0.p0.i64(ptr nonnull align 1 %oldp, ptr nonnull align 8 %filled, i64 %spec.select, i1 false)
  store i64 %spec.select, ptr %oldlenp, align 8
  br label %label_return

if.end18:                                         ; preds = %if.end9
  store i64 %call, ptr %oldp, align 8
  br label %label_return

label_return:                                     ; preds = %do.body4, %if.end18, %if.then16, %if.then
  %ret.0 = phi i32 [ 22, %if.then ], [ 22, %if.then16 ], [ 0, %if.end18 ], [ 22, %do.body4 ]
  ret i32 %ret.0
}